target datalayout = "e-m:e-p270:32:32-p271:32:32-p272:64:64-i64:64-i128:128-f80:128-n8:16:32:64-S128"
target triple = "x86_64-pc-linux-gnu"

@.str = private unnamed_addr constant [1 x i8] zeroinitializer, align 1

; Function Attrs: null_pointer_is_valid sspstrong uwtable
define zeroext i1 @decode_as_default_reset(ptr noundef %0, ptr noundef %1) #0 {
  %3 = alloca i1, align 1
  %4 = alloca ptr, align 8
  %5 = alloca ptr, align 8
  store ptr %0, ptr %4, align 8
  store ptr %1, ptr %5, align 8
  %6 = load ptr, ptr %4, align 8
  %7 = call i32 @get_dissector_table_selector_type(ptr noundef %6)
  switch i32 %7, label %24 [
    i32 4, label %8
    i32 5, label %8
    i32 6, label %8
    i32 7, label %8
    i32 0, label %13
    i32 26, label %15
    i32 27, label %15
    i32 28, label %15
    i32 43, label %15
    i32 45, label %15
  ]

8:                                                ; preds = %2, %2, %2, %2
  %9 = load ptr, ptr %4, align 8
  %10 = load ptr, ptr %5, align 8
  %11 = ptrtoint ptr %10 to i64
  %12 = trunc i64 %11 to i32
  call void @dissector_reset_uint(ptr noundef %9, i32 noundef %12)
  store i1 true, ptr %3, align 1
  br label %25

13:                                               ; preds = %2
  %14 = load ptr, ptr %4, align 8
  call void @dissector_reset_payload(ptr noundef %14)
  store i1 true, ptr %3, align 1
  br label %25

15:                                               ; preds = %2, %2, %2, %2, %2
  %16 = load ptr, ptr %4, align 8
  %17 = load ptr, ptr %5, align 8
  %18 = icmp ne ptr %17, null
  br i1 %18, label %20, label %19

19:                                               ; preds = %15
  br label %22

20:                                               ; preds = %15
  %21 = load ptr, ptr %5, align 8
  br label %22

22:                                               ; preds = %20, %19
  %23 = phi ptr [ @.str, %19 ], [ %21, %20 ]
  call void @dissector_reset_string(ptr noundef %16, ptr noundef %23)
  store i1 true, ptr %3, align 1
  br label %25

24:                                               ; preds = %2
  store i1 false, ptr %3, align 1
  br label %25

25:                                               ; preds = %24, %22, %13, %8
  %26 = load i1, ptr %3, align 1
  ret i1 %26
}