; Function Attrs: null_pointer_is_valid sspstrong uwtable
define noundef zeroext i1 @decode_as_default_reset(ptr noundef %0, ptr noundef %1) #0 {
  %3 = tail call i32 @get_dissector_table_selector_type(ptr noundef %0)
  switch i32 %3, label %10 [
    i32 4, label %4
    i32 5, label %4
    i32 6, label %4
    i32 7, label %4
    i32 0, label %7
    i32 26, label %8
    i32 27, label %8
    i32 28, label %8
    i32 43, label %8
    i32 45, label %8
  ]

4:                                                ; preds = %2, %2, %2, %2
  %5 = ptrtoint ptr %1 to i64
  %6 = trunc i64 %5 to i32
  tail call void @dissector_reset_uint(ptr noundef %0, i32 noundef %6)
  br label %10

7:                                                ; preds = %2
  tail call void @dissector_reset_payload(ptr noundef %0)
  br label %10

8:                                                ; preds = %2, %2, %2, %2, %2
  %.not = icmp eq ptr %1, null
  %9 = select i1 %.not, ptr @.str, ptr %1
  tail call void @dissector_reset_string(ptr noundef %0, ptr noundef nonnull %9)
  br label %10

10:                                               ; preds = %2, %8, %7, %4
  %.0 = phi i1 [ true, %8 ], [ true, %7 ], [ true, %4 ], [ false, %2 ]
  ret i1 %.0
}